target datalayout = "e-m:e-p270:32:32-p271:32:32-p272:64:64-i64:64-i128:128-f80:128-n8:16:32:64-S128"
target triple = "x86_64-pc-linux-gnu"

%"class.nanobind::object" = type { %"class.nanobind::handle" }
%"class.nanobind::handle" = type { ptr }
%class.anon.659 = type { i8 }
%"struct.nanobind::detail::tuple.661" = type { %"struct.nanobind::detail::type_caster.662" }
%"struct.nanobind::detail::type_caster.662" = type { %"class.nanobind::any" }
%"class.nanobind::any" = type { %"class.nanobind::object" }

; Function Attrs: mustprogress nounwind optsize uwtable
define linkonce_odr hidden void @_ZN8nanobind6objectC2ENS_6handleENS_6detail7steal_tE(ptr noundef nonnull align 8 dereferenceable(8) %0, ptr %1) unnamed_addr #2 comdat align 2 {
  %3 = alloca %"class.nanobind::handle", align 8
  %4 = alloca ptr, align 8
  %5 = getelementptr inbounds nuw %"class.nanobind::handle", ptr %3, i32 0, i32 0
  store ptr %1, ptr %5, align 8
  store ptr %0, ptr %4, align 8, !tbaa !40
  %6 = load ptr, ptr %4, align 8
  call void @llvm.memcpy.p0.p0.i64(ptr align 8 %6, ptr align 8 %3, i64 8, i1 false)
  ret void
}

; Function Attrs: inlinehint mustprogress nounwind optsize uwtable
define linkonce_odr hidden void @_ZN8nanobind3anyCI2NS_6objectEENS_6handleENS_6detail7steal_tE(ptr noundef nonnull align 8 dereferenceable(8) %0, ptr %1) unnamed_addr #12 comdat align 2 {
  %3 = alloca %"class.nanobind::handle", align 8
  %4 = alloca ptr, align 8
  %5 = getelementptr inbounds nuw %"class.nanobind::handle", ptr %3, i32 0, i32 0
  store ptr %1, ptr %5, align 8
  store ptr %0, ptr %4, align 8, !tbaa !855
  %6 = load ptr, ptr %4, align 8
  %7 = getelementptr inbounds nuw %"class.nanobind::handle", ptr %3, i32 0, i32 0
  %8 = load ptr, ptr %7, align 8
  call void @_ZN8nanobind6objectC2ENS_6handleENS_6detail7steal_tE(ptr noundef nonnull align 8 dereferenceable(8) %6, ptr %8) #21
  ret void
}

; Function Attrs: alwaysinline mustprogress nounwind optsize uwtable
define linkonce_odr hidden void @_ZN8nanobind6handleC2EDn(ptr noundef nonnull align 8 dereferenceable(8) %0, ptr %1) unnamed_addr #8 comdat align 2 {
  %3 = alloca ptr, align 8
  %4 = alloca ptr, align 8
  store ptr %0, ptr %3, align 8, !tbaa !20
  store ptr %1, ptr %4, align 8, !tbaa !237
  %5 = load ptr, ptr %3, align 8
  %6 = getelementptr inbounds nuw %"class.nanobind::handle", ptr %5, i32 0, i32 0
  store ptr null, ptr %6, align 8, !tbaa !22
  ret void
}

; Function Attrs: inlinehint mustprogress nounwind optsize uwtable
define linkonce_odr hidden void @_ZN8nanobind6detail11type_casterINS_3anyEiED2Ev(ptr noundef nonnull align 8 dereferenceable(8) %0) unnamed_addr #12 comdat align 2 {
  %2 = alloca ptr, align 8
  store ptr %0, ptr %2, align 8, !tbaa !853
  %3 = load ptr, ptr %2, align 8
  %4 = getelementptr inbounds nuw %"struct.nanobind::detail::type_caster.662", ptr %3, i32 0, i32 0
  call void @_ZN8nanobind6objectD2Ev(ptr noundef nonnull align 8 dereferenceable(8) %4) #20
  ret void
}

; Function Attrs: noinline noreturn nounwind optsize uwtable
define linkonce_odr hidden void @__clang_call_terminate(ptr noundef %0) #10 comdat {
  %2 = call ptr @__cxa_begin_catch(ptr %0) #1
  call void @_ZSt9terminatev() #22
  unreachable
}

; Function Attrs: mustprogress optsize uwtable
define linkonce_odr hidden ptr @_ZN8nanobind6object7releaseEv(ptr noundef nonnull align 8 dereferenceable(8) %0) #3 comdat align 2 {
  %2 = alloca %"class.nanobind::handle", align 8
  %3 = alloca ptr, align 8
  store ptr %0, ptr %3, align 8, !tbaa !40
  %4 = load ptr, ptr %3, align 8
  %5 = getelementptr inbounds nuw %"class.nanobind::handle", ptr %4, i32 0, i32 0
  %6 = load ptr, ptr %5, align 8, !tbaa !22
  call void @_ZN8nanobind6handleC2EPK7_object(ptr noundef nonnull align 8 dereferenceable(8) %2, ptr noundef %6) #21
  %7 = getelementptr inbounds nuw %"class.nanobind::handle", ptr %4, i32 0, i32 0
  store ptr null, ptr %7, align 8, !tbaa !22
  %8 = getelementptr inbounds nuw %"class.nanobind::handle", ptr %2, i32 0, i32 0
  %9 = load ptr, ptr %8, align 8
  ret ptr %9
}

; Function Attrs: mustprogress nounwind optsize uwtable
define linkonce_odr hidden void @_ZN8nanobind6objectC2EOS0_(ptr noundef nonnull align 8 dereferenceable(8) %0, ptr noundef nonnull align 8 dereferenceable(8) %1) unnamed_addr #2 comdat align 2 {
  %3 = alloca ptr, align 8
  %4 = alloca ptr, align 8
  store ptr %0, ptr %3, align 8, !tbaa !40
  store ptr %1, ptr %4, align 8, !tbaa !40
  %5 = load ptr, ptr %3, align 8
  %6 = load ptr, ptr %4, align 8, !tbaa !40
  call void @llvm.memcpy.p0.p0.i64(ptr align 8 %5, ptr align 8 %6, i64 8, i1 false)
  %7 = load ptr, ptr %4, align 8, !tbaa !40
  %8 = getelementptr inbounds nuw %"class.nanobind::handle", ptr %7, i32 0, i32 0
  store ptr null, ptr %8, align 8, !tbaa !22
  ret void
}

; Function Attrs: mustprogress optsize uwtable
define linkonce_odr hidden void @_ZN8nanobind6detail11type_casterINS_3anyEiEC2Ev(ptr noundef nonnull align 8 dereferenceable(8) %0) unnamed_addr #3 comdat align 2 {
  %2 = alloca ptr, align 8
  %3 = alloca %"class.nanobind::handle", align 8
  store ptr %0, ptr %2, align 8, !tbaa !853
  %4 = load ptr, ptr %2, align 8
  %5 = getelementptr inbounds nuw %"struct.nanobind::detail::type_caster.662", ptr %4, i32 0, i32 0
  call void @_ZN8nanobind6handleC2EDn(ptr noundef nonnull align 8 dereferenceable(8) %3, ptr null) #21
  %6 = getelementptr inbounds nuw %"class.nanobind::handle", ptr %3, i32 0, i32 0
  %7 = load ptr, ptr %6, align 8
  call void @_ZN8nanobind3anyCI2NS_6objectEENS_6handleENS_6detail7steal_tE(ptr noundef nonnull align 8 dereferenceable(8) %5, ptr %7) #21
  ret void
}

; Function Attrs: inlinehint mustprogress nounwind optsize uwtable
define linkonce_odr hidden void @_ZN8nanobind6detail5tupleIJNS0_11type_casterINS_3anyEiEEEED2Ev(ptr noundef nonnull align 8 dereferenceable(8) %0) unnamed_addr #12 comdat align 2 {
  %2 = alloca ptr, align 8
  store ptr %0, ptr %2, align 8, !tbaa !851
  %3 = load ptr, ptr %2, align 8
  %4 = getelementptr inbounds nuw %"struct.nanobind::detail::tuple.661", ptr %3, i32 0, i32 0
  call void @_ZN8nanobind6detail11type_casterINS_3anyEiED2Ev(ptr noundef nonnull align 8 dereferenceable(8) %4) #20
  ret void
}

; Function Attrs: mustprogress nounwind optsize uwtable
define linkonce_odr hidden void @_ZN8nanobind6objectD2Ev(ptr noundef nonnull align 8 dereferenceable(8) %0) unnamed_addr #2 comdat align 2 {
  %2 = alloca ptr, align 8
  store ptr %0, ptr %2, align 8, !tbaa !40
  %3 = load ptr, ptr %2, align 8
  %4 = call noundef nonnull align 8 dereferenceable(8) ptr @_ZNKR8nanobind6handle7dec_refEv(ptr noundef nonnull align 8 dereferenceable(8) %3) #20
  ret void
}

; Function Attrs: alwaysinline mustprogress nounwind optsize uwtable
define linkonce_odr hidden noundef ptr @_ZNK8nanobind6handle3ptrEv(ptr noundef nonnull align 8 dereferenceable(8) %0) #8 comdat align 2 {
  %2 = alloca ptr, align 8
  store ptr %0, ptr %2, align 8, !tbaa !20
  %3 = load ptr, ptr %2, align 8
  %4 = getelementptr inbounds nuw %"class.nanobind::handle", ptr %3, i32 0, i32 0
  %5 = load ptr, ptr %4, align 8, !tbaa !22
  ret ptr %5
}

; Function Attrs: mustprogress nounwind optsize uwtable
define linkonce_odr hidden ptr @_ZN8nanobind6detail11type_casterINS_3anyEiE8from_cppEOS2_NS_9rv_policyEPNS0_12cleanup_listE(ptr noundef nonnull align 8 dereferenceable(8) %0, i32 noundef %1, ptr noundef %2) #2 comdat align 2 personality ptr @__gxx_personality_v0 {
  %4 = alloca %"class.nanobind::handle", align 8
  %5 = alloca ptr, align 8
  %6 = alloca i32, align 4
  %7 = alloca ptr, align 8
  store ptr %0, ptr %5, align 8, !tbaa !855
  store i32 %1, ptr %6, align 4, !tbaa !113
  store ptr %2, ptr %7, align 8, !tbaa !115
  %8 = load ptr, ptr %5, align 8, !tbaa !855
  %9 = invoke ptr @_ZN8nanobind6object7releaseEv(ptr noundef nonnull align 8 dereferenceable(8) %8) #21
          to label %10 unwind label %14

10:                                               ; preds = %3
  %11 = getelementptr inbounds nuw %"class.nanobind::handle", ptr %4, i32 0, i32 0
  store ptr %9, ptr %11, align 8
  %12 = getelementptr inbounds nuw %"class.nanobind::handle", ptr %4, i32 0, i32 0
  %13 = load ptr, ptr %12, align 8
  ret ptr %13

14:                                               ; preds = %3
  %15 = landingpad { ptr, i32 }
          catch ptr null
  %16 = extractvalue { ptr, i32 } %15, 0
  call void @__clang_call_terminate(ptr %16) #22
  unreachable
}

; Function Attrs: inlinehint mustprogress nounwind optsize uwtable
define internal void @"_ZZL32nanobind_init_test_functions_extRN8nanobind7module_EENK4$_89clENS_3anyE"(ptr dead_on_unwind noalias writable sret(%"class.nanobind::any") align 8 %0, ptr noundef nonnull align 1 dereferenceable(1) %1, ptr noundef %2) #12 align 2 {
  %4 = alloca ptr, align 8
  %5 = alloca ptr, align 8
  %6 = alloca ptr, align 8
  store ptr %0, ptr %4, align 8
  store ptr %1, ptr %5, align 8, !tbaa !26
  store ptr %2, ptr %6, align 8, !tbaa !855
  call void @_ZN8nanobind3anyC2EOS0_(ptr noundef nonnull align 8 dereferenceable(8) %0, ptr noundef nonnull align 8 dereferenceable(8) %2) #20
  ret void
}

; Function Attrs: inlinehint mustprogress nounwind optsize uwtable
define linkonce_odr hidden void @_ZN8nanobind3anyC2EOS0_(ptr noundef nonnull align 8 dereferenceable(8) %0, ptr noundef nonnull align 8 dereferenceable(8) %1) unnamed_addr #12 comdat align 2 {
  %3 = alloca ptr, align 8
  %4 = alloca ptr, align 8
  store ptr %0, ptr %3, align 8, !tbaa !855
  store ptr %1, ptr %4, align 8, !tbaa !855
  %5 = load ptr, ptr %3, align 8
  %6 = load ptr, ptr %4, align 8, !tbaa !855
  call void @_ZN8nanobind6objectC2EOS0_(ptr noundef nonnull align 8 dereferenceable(8) %5, ptr noundef nonnull align 8 dereferenceable(8) %6) #20
  ret void
}

; Function Attrs: mustprogress nounwind optsize uwtable
define linkonce_odr hidden noundef nonnull align 8 dereferenceable(8) ptr @_ZN8nanobind6detail11type_casterINS_3anyEiEcvOS2_Ev(ptr noundef nonnull align 8 dereferenceable(8) %0) #2 comdat align 2 {
  %2 = alloca ptr, align 8
  store ptr %0, ptr %2, align 8, !tbaa !853
  %3 = load ptr, ptr %2, align 8
  %4 = getelementptr inbounds nuw %"struct.nanobind::detail::type_caster.662", ptr %3, i32 0, i32 0
  ret ptr %4
}

; Function Attrs: alwaysinline mustprogress nounwind optsize uwtable
define linkonce_odr hidden void @_ZN8nanobind6handleC2EPK7_object(ptr noundef nonnull align 8 dereferenceable(8) %0, ptr noundef %1) unnamed_addr #8 comdat align 2 {
  %3 = alloca ptr, align 8
  %4 = alloca ptr, align 8
  store ptr %0, ptr %3, align 8, !tbaa !20
  store ptr %1, ptr %4, align 8, !tbaa !14
  %5 = load ptr, ptr %3, align 8
  %6 = getelementptr inbounds nuw %"class.nanobind::handle", ptr %5, i32 0, i32 0
  %7 = load ptr, ptr %4, align 8, !tbaa !14
  store ptr %7, ptr %6, align 8, !tbaa !22
  ret void
}

; Function Attrs: alwaysinline mustprogress nounwind optsize uwtable
define linkonce_odr hidden noundef nonnull align 8 dereferenceable(8) ptr @_ZN8nanobind6detail5tupleIJNS0_11type_casterINS_3anyEiEEEE3getILm0EEERDav(ptr noundef nonnull align 8 dereferenceable(8) %0) #8 comdat align 2 {
  %2 = alloca ptr, align 8
  store ptr %0, ptr %2, align 8, !tbaa !851
  %3 = load ptr, ptr %2, align 8
  %4 = getelementptr inbounds nuw %"struct.nanobind::detail::tuple.661", ptr %3, i32 0, i32 0
  ret ptr %4
}

; Function Attrs: mustprogress optsize uwtable
define linkonce_odr hidden void @_ZN8nanobind6detail5tupleIJNS0_11type_casterINS_3anyEiEEEEC2Ev(ptr noundef nonnull align 8 dereferenceable(8) %0) unnamed_addr #3 comdat align 2 {
  %2 = alloca ptr, align 8
  store ptr %0, ptr %2, align 8, !tbaa !851
  %3 = load ptr, ptr %2, align 8
  %4 = getelementptr inbounds nuw %"struct.nanobind::detail::tuple.661", ptr %3, i32 0, i32 0
  call void @_ZN8nanobind6detail11type_casterINS_3anyEiEC2Ev(ptr noundef nonnull align 8 dereferenceable(8) %4) #21
  ret void
}

; Function Attrs: alwaysinline mustprogress optsize uwtable
define internal noundef ptr @"_ZZN8nanobind6detail11func_createILb0ELb1EZL32nanobind_init_test_functions_extRNS_7module_EE4$_89NS_3anyEJS5_EJLm0EEJNS_5scopeENS_4nameEEEEP7_objectOT1_PFT2_DpT3_ESt16integer_sequenceImJXspT4_EEEDpRKT5_ENKUlPvPS9_PhNS_9rv_policyEPNS0_12cleanup_listEE_clESN_SO_SP_SQ_SS_"(ptr noundef nonnull align 1 dereferenceable(1) %0, ptr noundef %1, ptr noundef %2, ptr noundef %3, i32 noundef %4, ptr noundef %5) #6 align 2 personality ptr @__gxx_personality_v0 {
  %7 = alloca ptr, align 8
  %8 = alloca ptr, align 8
  %9 = alloca ptr, align 8
  %10 = alloca ptr, align 8
  %11 = alloca ptr, align 8
  %12 = alloca i32, align 4
  %13 = alloca ptr, align 8
  %14 = alloca ptr, align 8
  %15 = alloca %"struct.nanobind::detail::tuple.661", align 8
  %16 = alloca ptr, align 8
  %17 = alloca i32, align 4
  %18 = alloca %"class.nanobind::handle", align 8
  %19 = alloca i32, align 4
  %20 = alloca ptr, align 8
  %21 = alloca %"class.nanobind::handle", align 8
  %22 = alloca %"class.nanobind::any", align 8
  %23 = alloca %"class.nanobind::any", align 8
  store ptr %0, ptr %8, align 8, !tbaa !26
  store ptr %1, ptr %9, align 8, !tbaa !26
  store ptr %2, ptr %10, align 8, !tbaa !146
  store ptr %3, ptr %11, align 8, !tbaa !57
  store i32 %4, ptr %12, align 4, !tbaa !113
  store ptr %5, ptr %13, align 8, !tbaa !115
  call void @llvm.lifetime.start.p0(i64 8, ptr %14) #1
  %24 = load ptr, ptr %9, align 8, !tbaa !26
  store ptr %24, ptr %14, align 8, !tbaa !847
  call void @llvm.lifetime.start.p0(i64 8, ptr %15) #1
  call void @_ZN8nanobind6detail5tupleIJNS0_11type_casterINS_3anyEiEEEEC2Ev(ptr noundef nonnull align 8 dereferenceable(8) %15) #21
  %25 = invoke noundef nonnull align 8 dereferenceable(8) ptr @_ZN8nanobind6detail5tupleIJNS0_11type_casterINS_3anyEiEEEE3getILm0EEERDav(ptr noundef nonnull align 8 dereferenceable(8) %15) #21
          to label %26 unwind label %39

26:                                               ; preds = %6
  %27 = load ptr, ptr %10, align 8, !tbaa !146
  %28 = getelementptr inbounds nuw ptr, ptr %27, i64 0
  %29 = load ptr, ptr %28, align 8, !tbaa !14
  invoke void @_ZN8nanobind6handleC2EPK7_object(ptr noundef nonnull align 8 dereferenceable(8) %18, ptr noundef %29) #21
          to label %30 unwind label %39

30:                                               ; preds = %26
  %31 = load ptr, ptr %11, align 8, !tbaa !57
  %32 = getelementptr inbounds nuw i8, ptr %31, i64 0
  %33 = load i8, ptr %32, align 1, !tbaa !106
  %34 = load ptr, ptr %13, align 8, !tbaa !115
  %35 = getelementptr inbounds nuw %"class.nanobind::handle", ptr %18, i32 0, i32 0
  %36 = load ptr, ptr %35, align 8
  %37 = call noundef zeroext i1 @_ZN8nanobind6detail11type_casterINS_3anyEiE11from_pythonENS_6handleEhPNS0_12cleanup_listE(ptr noundef nonnull align 8 dereferenceable(8) %25, ptr %36, i8 noundef zeroext %33, ptr noundef %34) #20
  br i1 %37, label %43, label %38

38:                                               ; preds = %30
  store ptr inttoptr (i64 1 to ptr), ptr %7, align 8
  store i32 1, ptr %19, align 4
  br label %65

39:                                               ; preds = %26, %6
  %40 = landingpad { ptr, i32 }
          cleanup
  %41 = extractvalue { ptr, i32 } %40, 0
  store ptr %41, ptr %16, align 8
  %42 = extractvalue { ptr, i32 } %40, 1
  store i32 %42, ptr %17, align 4
  br label %67

43:                                               ; preds = %30
  call void @llvm.lifetime.start.p0(i64 8, ptr %20) #1
  call void @llvm.lifetime.start.p0(i64 8, ptr %21) #1
  call void @llvm.lifetime.start.p0(i64 8, ptr %22) #1
  %44 = load ptr, ptr %14, align 8, !tbaa !847
  %45 = invoke noundef nonnull align 8 dereferenceable(8) ptr @_ZN8nanobind6detail5tupleIJNS0_11type_casterINS_3anyEiEEEE3getILm0EEERDav(ptr noundef nonnull align 8 dereferenceable(8) %15) #21
          to label %46 unwind label %56

46:                                               ; preds = %43
  %47 = invoke noundef nonnull align 8 dereferenceable(8) ptr @_ZN8nanobind6detail11type_casterINS_3anyEiEcvOS2_Ev(ptr noundef nonnull align 8 dereferenceable(8) %45) #21
          to label %48 unwind label %56

48:                                               ; preds = %46
  call void @_ZN8nanobind3anyC2EOS0_(ptr noundef nonnull align 8 dereferenceable(8) %23, ptr noundef nonnull align 8 dereferenceable(8) %47) #20
  invoke void @"_ZZL32nanobind_init_test_functions_extRN8nanobind7module_EENK4$_89clENS_3anyE"(ptr dead_on_unwind writable sret(%"class.nanobind::any") align 8 %22, ptr noundef nonnull align 1 dereferenceable(1) %44, ptr noundef %23) #21
          to label %49 unwind label %60

49:                                               ; preds = %48
  %50 = load i32, ptr %12, align 4, !tbaa !113
  %51 = load ptr, ptr %13, align 8, !tbaa !115
  %52 = call ptr @_ZN8nanobind6detail11type_casterINS_3anyEiE8from_cppEOS2_NS_9rv_policyEPNS0_12cleanup_listE(ptr noundef nonnull align 8 dereferenceable(8) %22, i32 noundef %50, ptr noundef %51) #20
  %53 = getelementptr inbounds nuw %"class.nanobind::handle", ptr %21, i32 0, i32 0
  store ptr %52, ptr %53, align 8
  %54 = call noundef ptr @_ZNK8nanobind6handle3ptrEv(ptr noundef nonnull align 8 dereferenceable(8) %21) #21
  store ptr %54, ptr %20, align 8, !tbaa !14
  call void @_ZN8nanobind6objectD2Ev(ptr noundef nonnull align 8 dereferenceable(8) %22) #20
  call void @_ZN8nanobind6objectD2Ev(ptr noundef nonnull align 8 dereferenceable(8) %23) #20
  call void @llvm.lifetime.end.p0(i64 8, ptr %22) #1
  call void @llvm.lifetime.end.p0(i64 8, ptr %21) #1
  %55 = load ptr, ptr %20, align 8, !tbaa !14
  store ptr %55, ptr %7, align 8
  store i32 1, ptr %19, align 4
  call void @llvm.lifetime.end.p0(i64 8, ptr %20) #1
  br label %65

56:                                               ; preds = %46, %43
  %57 = landingpad { ptr, i32 }
          cleanup
  %58 = extractvalue { ptr, i32 } %57, 0
  store ptr %58, ptr %16, align 8
  %59 = extractvalue { ptr, i32 } %57, 1
  store i32 %59, ptr %17, align 4
  br label %64

60:                                               ; preds = %48
  %61 = landingpad { ptr, i32 }
          cleanup
  %62 = extractvalue { ptr, i32 } %61, 0
  store ptr %62, ptr %16, align 8
  %63 = extractvalue { ptr, i32 } %61, 1
  store i32 %63, ptr %17, align 4
  call void @_ZN8nanobind6objectD2Ev(ptr noundef nonnull align 8 dereferenceable(8) %23) #20
  br label %64

64:                                               ; preds = %60, %56
  call void @llvm.lifetime.end.p0(i64 8, ptr %22) #1
  call void @llvm.lifetime.end.p0(i64 8, ptr %21) #1
  call void @llvm.lifetime.end.p0(i64 8, ptr %20) #1
  br label %67

65:                                               ; preds = %49, %38
  call void @_ZN8nanobind6detail5tupleIJNS0_11type_casterINS_3anyEiEEEED2Ev(ptr noundef nonnull align 8 dereferenceable(8) %15) #20
  call void @llvm.lifetime.end.p0(i64 8, ptr %15) #1
  call void @llvm.lifetime.end.p0(i64 8, ptr %14) #1
  %66 = load ptr, ptr %7, align 8
  ret ptr %66

67:                                               ; preds = %64, %39
  call void @_ZN8nanobind6detail5tupleIJNS0_11type_casterINS_3anyEiEEEED2Ev(ptr noundef nonnull align 8 dereferenceable(8) %15) #20
  call void @llvm.lifetime.end.p0(i64 8, ptr %15) #1
  call void @llvm.lifetime.end.p0(i64 8, ptr %14) #1
  br label %68

68:                                               ; preds = %67
  %69 = load ptr, ptr %16, align 8
  %70 = load i32, ptr %17, align 4
  %71 = insertvalue { ptr, i32 } poison, ptr %69, 0
  %72 = insertvalue { ptr, i32 } %71, i32 %70, 1
  resume { ptr, i32 } %72
}

; Function Attrs: inlinehint mustprogress optsize uwtable
define internal noundef ptr @"_ZZN8nanobind6detail11func_createILb0ELb1EZL32nanobind_init_test_functions_extRNS_7module_EE4$_89NS_3anyEJS5_EJLm0EEJNS_5scopeENS_4nameEEEEP7_objectOT1_PFT2_DpT3_ESt16integer_sequenceImJXspT4_EEEDpRKT5_ENUlPvPS9_PhNS_9rv_policyEPNS0_12cleanup_listEE_8__invokeESN_SO_SP_SQ_SS_"(ptr noundef %0, ptr noundef %1, ptr noundef %2, i32 noundef %3, ptr noundef %4) #11 align 2 {
  %6 = alloca ptr, align 8
  %7 = alloca ptr, align 8
  %8 = alloca ptr, align 8
  %9 = alloca i32, align 4
  %10 = alloca ptr, align 8
  %11 = alloca %class.anon.659, align 1
  store ptr %0, ptr %6, align 8, !tbaa !26
  store ptr %1, ptr %7, align 8, !tbaa !146
  store ptr %2, ptr %8, align 8, !tbaa !57
  store i32 %3, ptr %9, align 4, !tbaa !113
  store ptr %4, ptr %10, align 8, !tbaa !115
  %12 = load ptr, ptr %6, align 8, !tbaa !26
  %13 = load ptr, ptr %7, align 8, !tbaa !146
  %14 = load ptr, ptr %8, align 8, !tbaa !57
  %15 = load i32, ptr %9, align 4, !tbaa !113
  %16 = load ptr, ptr %10, align 8, !tbaa !115
  %17 = call noundef ptr @"_ZZN8nanobind6detail11func_createILb0ELb1EZL32nanobind_init_test_functions_extRNS_7module_EE4$_89NS_3anyEJS5_EJLm0EEJNS_5scopeENS_4nameEEEEP7_objectOT1_PFT2_DpT3_ESt16integer_sequenceImJXspT4_EEEDpRKT5_ENKUlPvPS9_PhNS_9rv_policyEPNS0_12cleanup_listEE_clESN_SO_SP_SQ_SS_"(ptr noundef nonnull align 1 dereferenceable(1) %11, ptr noundef %12, ptr noundef %13, ptr noundef %14, i32 noundef %15, ptr noundef %16) #21
  ret ptr %17
}